target datalayout = "e-m:e-p270:32:32-p271:32:32-p272:64:64-i64:64-i128:128-f80:128-n8:16:32:64-S128"
target triple = "x86_64-pc-linux-gnu"

%class.SuspendibleThreadSetJoiner = type { i8 }

@G1RemSetFreeMemoryRescheduleDelayMillis = external global i32, align 4

; Function Attrs: mustprogress nounwind uwtable
define linkonce_odr hidden void @_ZN26SuspendibleThreadSetJoinerD2Ev(ptr noundef nonnull align 1 dereferenceable(1) %0) unnamed_addr #1 comdat align 2 {
  %2 = alloca ptr, align 8
  store ptr %0, ptr %2, align 8
  %3 = load ptr, ptr %2, align 8
  %4 = getelementptr inbounds %class.SuspendibleThreadSetJoiner, ptr %3, i32 0, i32 0
  %5 = load i8, ptr %4, align 1
  %6 = trunc i8 %5 to i1
  br i1 %6, label %7, label %8

7:                                                ; preds = %1
  call void @_ZN20SuspendibleThreadSet5leaveEv()
  br label %8

8:                                                ; preds = %7, %1
  ret void
}

; Function Attrs: mustprogress nounwind uwtable
define hidden noundef i64 @_ZNK30G1MonotonicArenaFreeMemoryTask19reschedule_delay_msEv(ptr noundef nonnull align 8 dereferenceable(120) %0) #1 align 2 {
  %2 = alloca ptr, align 8
  store ptr %0, ptr %2, align 8
  %3 = load i32, ptr @G1RemSetFreeMemoryRescheduleDelayMillis, align 4
  %4 = zext i32 %3 to i64
  ret i64 %4
}

; Function Attrs: mustprogress nounwind uwtable
define linkonce_odr hidden void @_ZN26SuspendibleThreadSetJoinerC2Eb(ptr noundef nonnull align 1 dereferenceable(1) %0, i1 noundef zeroext %1) unnamed_addr #1 comdat align 2 {
  %3 = alloca ptr, align 8
  %4 = alloca i8, align 1
  store ptr %0, ptr %3, align 8
  %5 = zext i1 %1 to i8
  store i8 %5, ptr %4, align 1
  %6 = load ptr, ptr %3, align 8
  %7 = getelementptr inbounds %class.SuspendibleThreadSetJoiner, ptr %6, i32 0, i32 0
  %8 = load i8, ptr %4, align 1
  %9 = trunc i8 %8 to i1
  %10 = zext i1 %9 to i8
  store i8 %10, ptr %7, align 1
  %11 = getelementptr inbounds %class.SuspendibleThreadSetJoiner, ptr %6, i32 0, i32 0
  %12 = load i8, ptr %11, align 1
  %13 = trunc i8 %12 to i1
  br i1 %13, label %14, label %15

14:                                               ; preds = %2
  call void @_ZN20SuspendibleThreadSet4joinEv()
  br label %15

15:                                               ; preds = %14, %2
  ret void
}

; Function Attrs: mustprogress nounwind uwtable
define hidden void @_ZN30G1MonotonicArenaFreeMemoryTask7executeEv(ptr noundef nonnull align 8 dereferenceable(120) %0) unnamed_addr #1 align 2 {
  %2 = alloca ptr, align 8
  %3 = alloca %class.SuspendibleThreadSetJoiner, align 1
  store ptr %0, ptr %2, align 8
  %4 = load ptr, ptr %2, align 8
  call void @_ZN26SuspendibleThreadSetJoinerC2Eb(ptr noundef nonnull align 1 dereferenceable(1) %3, i1 noundef zeroext true)
  %5 = call noundef zeroext i1 @_ZN30G1MonotonicArenaFreeMemoryTask24free_excess_arena_memoryEv(ptr noundef nonnull align 8 dereferenceable(120) %4)
  br i1 %5, label %6, label %8

6:                                                ; preds = %1
  %7 = call noundef i64 @_ZNK30G1MonotonicArenaFreeMemoryTask19reschedule_delay_msEv(ptr noundef nonnull align 8 dereferenceable(120) %4)
  call void @_ZN13G1ServiceTask8scheduleEl(ptr noundef nonnull align 8 dereferenceable(40) %4, i64 noundef %7)
  br label %8

8:                                                ; preds = %6, %1
  call void @_ZN26SuspendibleThreadSetJoinerD2Ev(ptr noundef nonnull align 1 dereferenceable(1) %3) #8
  ret void
}