; Function Attrs: mustprogress nounwind uwtable
define hidden void @_ZN30G1MonotonicArenaFreeMemoryTask7executeEv(ptr noundef nonnull align 8 dereferenceable(120) %0) unnamed_addr #2 align 2 {
  tail call void @_ZN20SuspendibleThreadSet4joinEv() #14
  %2 = tail call noundef zeroext i1 @_ZN30G1MonotonicArenaFreeMemoryTask24free_excess_arena_memoryEv(ptr noundef nonnull align 8 dereferenceable(120) %0)
  br i1 %2, label %3, label %_ZN26SuspendibleThreadSetJoinerD2Ev.exit

3:                                                ; preds = %1
  %4 = load i32, ptr @G1RemSetFreeMemoryRescheduleDelayMillis, align 4
  %5 = zext i32 %4 to i64
  tail call void @_ZN13G1ServiceTask8scheduleEl(ptr noundef nonnull align 8 dereferenceable(40) %0, i64 noundef %5) #14
  br label %_ZN26SuspendibleThreadSetJoinerD2Ev.exit

_ZN26SuspendibleThreadSetJoinerD2Ev.exit:         ; preds = %3, %1
  tail call void @_ZN20SuspendibleThreadSet5leaveEv() #14
  ret void
}